target datalayout = "e-m:e-p270:32:32-p271:32:32-p272:64:64-i64:64-i128:128-f80:128-n8:16:32:64-S128"
target triple = "x86_64-pc-linux-gnu"

%struct._zend_array = type { %struct._zend_refcounted_h, %union.anon.0, i32, %union.anon.1, i32, i32, i32, i32, i64, ptr }
%struct._zend_refcounted_h = type { i32, %union.anon }
%union.anon = type { i32 }
%union.anon.0 = type { i32 }
%union.anon.1 = type { ptr }
%struct._php_stream = type { ptr, ptr, %struct._php_stream_filter_chain, %struct._php_stream_filter_chain, ptr, ptr, %struct._zval_struct, i16, [16 x i8], i32, ptr, ptr, ptr, ptr, i64, ptr, i64, i64, i64, i64, ptr }
%struct._php_stream_filter_chain = type { ptr, ptr, ptr }
%struct._zval_struct = type { %union._zend_value, %union.anon.3, %union.anon.6 }
%union._zend_value = type { i64 }
%union.anon.3 = type { i32 }
%union.anon.6 = type { i32 }

; Function Attrs: nounwind uwtable
define internal i32 @phar_dir_seek(ptr noundef %0, i64 noundef %1, i32 noundef %2, ptr noundef %3) #0 {
  %5 = alloca ptr, align 8
  %6 = alloca ptr, align 8
  %7 = alloca ptr, align 8
  %8 = alloca i32, align 4
  %9 = alloca ptr, align 8
  %10 = alloca i64, align 8
  %11 = alloca i32, align 4
  %12 = alloca ptr, align 8
  %13 = alloca ptr, align 8
  store ptr %0, ptr %9, align 8
  store i64 %1, ptr %10, align 8
  store i32 %2, ptr %11, align 4
  store ptr %3, ptr %12, align 8
  %14 = load ptr, ptr %9, align 8
  %15 = getelementptr inbounds %struct._php_stream, ptr %14, i32 0, i32 1
  %16 = load ptr, ptr %15, align 8
  store ptr %16, ptr %13, align 8
  %17 = load ptr, ptr %13, align 8
  %18 = icmp ne ptr %17, null
  br i1 %18, label %20, label %19

19:                                               ; preds = %4
  store i32 -1, ptr %8, align 4
  br label %64

20:                                               ; preds = %4
  %21 = load i32, ptr %11, align 4
  %22 = icmp eq i32 %21, 2
  br i1 %22, label %23, label %31

23:                                               ; preds = %20
  store i32 0, ptr %11, align 4
  %24 = load ptr, ptr %13, align 8
  store ptr %24, ptr %5, align 8
  %25 = load ptr, ptr %5, align 8
  %26 = getelementptr inbounds %struct._zend_array, ptr %25, i32 0, i32 5
  %27 = load i32, ptr %26, align 4
  %28 = zext i32 %27 to i64
  %29 = load i64, ptr %10, align 8
  %30 = add nsw i64 %28, %29
  store i64 %30, ptr %10, align 8
  br label %31

31:                                               ; preds = %23, %20
  %32 = load i32, ptr %11, align 4
  %33 = icmp eq i32 %32, 0
  br i1 %33, label %34, label %39

34:                                               ; preds = %31
  %35 = load ptr, ptr %13, align 8
  store ptr %35, ptr %7, align 8
  %36 = load ptr, ptr %7, align 8
  %37 = load ptr, ptr %7, align 8
  %38 = getelementptr inbounds %struct._zend_array, ptr %37, i32 0, i32 7
  call void @zend_hash_internal_pointer_reset_ex(ptr noundef %36, ptr noundef %38) #8
  br label %39

39:                                               ; preds = %34, %31
  %40 = load i64, ptr %10, align 8
  %41 = icmp slt i64 %40, 0
  br i1 %41, label %42, label %43

42:                                               ; preds = %39
  store i32 -1, ptr %8, align 4
  br label %64

43:                                               ; preds = %39
  %44 = load ptr, ptr %12, align 8
  store i64 0, ptr %44, align 8
  br label %45

45:                                               ; preds = %59, %43
  %46 = load ptr, ptr %12, align 8
  %47 = load i64, ptr %46, align 8
  %48 = load i64, ptr %10, align 8
  %49 = icmp slt i64 %47, %48
  br i1 %49, label %50, label %57

50:                                               ; preds = %45
  %51 = load ptr, ptr %13, align 8
  store ptr %51, ptr %6, align 8
  %52 = load ptr, ptr %6, align 8
  %53 = load ptr, ptr %6, align 8
  %54 = getelementptr inbounds %struct._zend_array, ptr %53, i32 0, i32 7
  %55 = call i32 @zend_hash_move_forward_ex(ptr noundef %52, ptr noundef %54) #8
  %56 = icmp eq i32 %55, 0
  br label %57

57:                                               ; preds = %50, %45
  %58 = phi i1 [ false, %45 ], [ %56, %50 ]
  br i1 %58, label %59, label %63

59:                                               ; preds = %57
  %60 = load ptr, ptr %12, align 8
  %61 = load i64, ptr %60, align 8
  %62 = add nsw i64 %61, 1
  store i64 %62, ptr %60, align 8
  br label %45

63:                                               ; preds = %57
  store i32 0, ptr %8, align 4
  br label %64

64:                                               ; preds = %63, %42, %19
  %65 = load i32, ptr %8, align 4
  ret i32 %65
}