; Function Attrs: nounwind uwtable
define internal noundef i32 @phar_dir_seek(ptr nocapture noundef readonly %0, i64 noundef %1, i32 noundef %2, ptr nocapture noundef %3) #1 {
  %5 = getelementptr inbounds i8, ptr %0, i64 8
  %6 = load ptr, ptr %5, align 8
  %.not = icmp eq ptr %6, null
  br i1 %.not, label %.critedge, label %7

7:                                                ; preds = %4
  switch i32 %2, label %14 [
    i32 2, label %.thread
    i32 0, label %12
  ]

.thread:                                          ; preds = %7
  %8 = getelementptr inbounds i8, ptr %6, i64 28
  %9 = load i32, ptr %8, align 4
  %10 = zext i32 %9 to i64
  %11 = add nsw i64 %10, %1
  br label %12

12:                                               ; preds = %7, %.thread
  %.01825 = phi i64 [ %11, %.thread ], [ %1, %7 ]
  %13 = getelementptr inbounds i8, ptr %6, i64 36
  tail call void @zend_hash_internal_pointer_reset_ex(ptr noundef nonnull %6, ptr noundef nonnull %13) #10
  br label %14

14:                                               ; preds = %7, %12
  %.01824 = phi i64 [ %.01825, %12 ], [ %1, %7 ]
  %15 = icmp slt i64 %.01824, 0
  br i1 %15, label %.critedge, label %.preheader

.preheader:                                       ; preds = %14
  %16 = getelementptr inbounds i8, ptr %6, i64 36
  store i64 0, ptr %3, align 8
  %.not27 = icmp eq i64 %.01824, 0
  br i1 %.not27, label %.critedge, label %.lr.ph

.lr.ph:                                           ; preds = %.preheader, %19
  %17 = tail call i32 @zend_hash_move_forward_ex(ptr noundef nonnull %6, ptr noundef nonnull %16) #10
  %18 = icmp eq i32 %17, 0
  br i1 %18, label %19, label %.critedge

19:                                               ; preds = %.lr.ph
  %20 = load i64, ptr %3, align 8
  %21 = add nsw i64 %20, 1
  store i64 %21, ptr %3, align 8
  %22 = icmp slt i64 %21, %.01824
  br i1 %22, label %.lr.ph, label %.critedge

.critedge:                                        ; preds = %19, %.lr.ph, %.preheader, %14, %4
  %.0 = phi i32 [ -1, %4 ], [ -1, %14 ], [ 0, %.preheader ], [ 0, %.lr.ph ], [ 0, %19 ]
  ret i32 %.0
}